(lp0
S'object(c1,BreakfastCereal)'
p1
aS'object(c0,BreakfastCereal)'
p2
aS'object(c2,Tea-Iced)'
p3
aS'object(c2,Milk)'
p4
aS'object(c0,BreakfastCereal)'
p5
aS'object(c2,Milk)'
p6
aS'object(c1,Knife)'
p7
aS'object(c2,Rice)'
p8
aS'object(c1,BreakfastCereal)'
p9
aS'object(c0,BreakfastCereal)'
p10
aS'object(c0,BreakfastCereal)'
p11
aS'object(c0,Rice)'
p12
aS'object(c1,Knife)'
p13
aS'object(c2,Tea-Iced)'
p14
aS'object(c0,Tea-Iced)'
p15
aS'object(c0,PancakeMaker)'
p16
aS'object(c1,PancakeMaker)'
p17
aS'object(c2,PancakeMaker)'
p18
aS'object(c0,Knife)'
p19
aS'object(c1,Rice)'
p20
a.