(lp0
S'object(c1,BreakfastCereal)'
p1
aS'object(c0,BreakfastCereal)'
p2
aS'object(c2,Milk)'
p3
aS'object(c2,Milk)'
p4
aS'object(c0,BreakfastCereal)'
p5
aS'object(c2,Milk)'
p6
aS'object(c1,BreakfastCereal)'
p7
aS'object(c2,Buttermilk)'
p8
aS'object(c1,BreakfastCereal)'
p9
aS'object(c0,BreakfastCereal)'
p10
aS'object(c0,BreakfastCereal)'
p11
aS'object(c0,BreakfastCereal)'
p12
aS'object(c1,BreakfastCereal)'
p13
aS'object(c2,Tea-Iced)'
p14
aS'object(c0,Milk)'
p15
aS'object(c0,Tea-Iced)'
p16
aS'object(c1,Tea-Iced)'
p17
aS'object(c2,Milk)'
p18
aS'object(c0,Milk)'
p19
aS'object(c1,Milk)'
p20
a.