(lp0
S'object(c2,Tea-Iced)'
p1
aS'object(c1,BreakfastCereal)'
p2
aS'object(c1,BreakfastCereal)'
p3
aS'object(c1,Rice)'
p4
aS'object(c2,Knife)'
p5
aS'object(c1,Milk)'
p6
aS'object(c1,Knife)'
p7
aS'object(c2,Rice)'
p8
aS'object(c0,Rice)'
p9
aS'object(c1,Knife)'
p10
aS'object(c0,Knife)'
p11
aS'object(c1,Rice)'
p12
aS'object(c1,BreakfastCereal)'
p13
aS'object(c1,Knife)'
p14
aS'object(c3,Rice)'
p15
aS'object(c3,BreakfastCereal)'
p16
aS'object(c2,Tea-Iced)'
p17
aS'object(c0,Knife)'
p18
aS'object(c1,TomatoSauce)'
p19
aS'object(c3,Rice)'
p20
aS'object(c0,Rice)'
p21
aS'object(c2,Knife)'
p22
aS'object(c1,BreakfastCereal)'
p23
aS'object(c1,BreakfastCereal)'
p24
aS'object(c1,BreakfastCereal)'
p25
aS'object(c1,BreakfastCereal)'
p26
aS'object(c1,Knife)'
p27
aS'object(c4,Rice)'
p28
aS'object(c1,Tea-Iced)'
p29
aS'object(c0,Knife)'
p30
aS'object(c2,Rice)'
p31
aS'object(c0,Knife)'
p32
aS'object(c2,Rice)'
p33
aS'object(c1,Milk)'
p34
aS'object(c0,Buttermilk)'
p35
aS'object(c0,Tea-Iced)'
p36
a.