(lp0
S'object(c2,BreakfastCereal)'
p1
aS'object(c2,Knife)'
p2
aS'object(c3,Rice)'
p3
aS'object(c0,BreakfastCereal)'
p4
aS'object(c2,Milk)'
p5
aS'object(c2,Rice)'
p6
aS'object(c3,Knife)'
p7
aS'object(c0,BreakfastCereal)'
p8
aS'object(c1,BreakfastCereal)'
p9
aS'object(c1,Tea-Iced)'
p10
aS'object(c1,BreakfastCereal)'
p11
aS'object(c2,Tea-Iced)'
p12
aS'object(c2,BreakfastCereal)'
p13
aS'object(c0,BreakfastCereal)'
p14
aS'object(c0,BreakfastCereal)'
p15
aS'object(c0,Knife)'
p16
aS'object(c1,TomatoSauce)'
p17
aS'object(c2,Rice)'
p18
aS'object(c1,Rice)'
p19
aS'object(c2,Knife)'
p20
aS'object(c1,BreakfastCereal)'
p21
aS'object(c0,Rice)'
p22
aS'object(c1,TomatoSauce)'
p23
aS'object(c3,Knife)'
p24
aS'object(c3,Tea-Iced)'
p25
aS'object(c2,Milk)'
p26
aS'object(c0,TomatoSauce)'
p27
aS'object(c1,Knife)'
p28
aS'object(c2,Rice)'
p29
aS'object(c0,Tea-Iced)'
p30
aS'object(c1,Tea-Iced)'
p31
aS'object(c0,Rice)'
p32
aS'object(c2,Knife)'
p33
aS'object(c0,Milk)'
p34
a.