(lp0
S'object(c0,BreakfastCereal)'
p1
aS'object(c2,Knife)'
p2
aS'object(c4,Rice)'
p3
aS'object(c1,BreakfastCereal)'
p4
aS'object(c1,Buttermilk)'
p5
aS'object(c1,BreakfastCereal)'
p6
aS'object(c0,BreakfastCereal)'
p7
aS'object(c3,Rice)'
p8
aS'object(c4,Knife)'
p9
aS'object(c0,BreakfastCereal)'
p10
aS'object(c1,Milk)'
p11
aS'object(c2,Juice)'
p12
aS'object(c1,BreakfastCereal)'
p13
aS'object(c2,BreakfastCereal)'
p14
aS'object(c3,Tea-Iced)'
p15
aS'object(c3,Milk)'
p16
aS'object(c3,Knife)'
p17
aS'object(c4,Rice)'
p18
aS'object(c1,Tea-Iced)'
p19
aS'object(c0,Rice)'
p20
aS'object(c1,Knife)'
p21
aS'object(c0,Tea-Iced)'
p22
aS'object(c1,Tea-Iced)'
p23
a.