(lp0
S'object(c1,BreakfastCereal)'
p1
aS'object(c1,Juice)'
p2
aS'object(c2,Bowl)'
p3
aS'object(c2,Tea-Iced)'
p4
aS'object(c0,Knife)'
p5
aS'object(c2,Rice)'
p6
aS'object(c2,Buttermilk)'
p7
aS'object(c1,Knife)'
p8
aS'object(c2,Rice)'
p9
aS'object(c0,BreakfastCereal)'
p10
aS'object(c0,BreakfastCereal)'
p11
aS'object(c2,TomatoSauce)'
p12
aS'object(c3,Knife)'
p13
aS'object(c4,Rice)'
p14
aS'object(c1,TomatoSauce)'
p15
aS'object(c2,Rice)'
p16
aS'object(c3,Knife)'
p17
aS'object(c3,Milk)'
p18
aS'object(c0,Knife)'
p19
aS'object(c1,Rice)'
p20
aS'object(c0,Knife)'
p21
aS'object(c3,Rice)'
p22
aS'object(c1,Milk)'
p23
aS'object(c3,Tea-Iced)'
p24
aS'object(c3,Tea-Iced)'
p25
aS'object(c3,Tea-Iced)'
p26
aS'object(c1,Tea-Iced)'
p27
aS'object(c1,Milk)'
p28
a.